target datalayout = "e-m:e-p270:32:32-p271:32:32-p272:64:64-i64:64-i128:128-f80:128-n8:16:32:64-S128"
target triple = "x86_64-pc-linux-gnu"

%struct.dt_dbus_t = type { i32, ptr, i32, i32, ptr }

; Function Attrs: nounwind uwtable
define i32 @dt_dbus_connected(ptr noundef %0) #0 {
  %2 = alloca ptr, align 8
  store ptr %0, ptr %2, align 8, !tbaa !6
  %3 = load ptr, ptr %2, align 8, !tbaa !6
  %4 = icmp ne ptr %3, null
  br i1 %4, label %5, label %10

5:                                                ; preds = %1
  %6 = load ptr, ptr %2, align 8, !tbaa !6
  %7 = getelementptr inbounds nuw %struct.dt_dbus_t, ptr %6, i32 0, i32 0
  %8 = load i32, ptr %7, align 8, !tbaa !30
  %9 = icmp ne i32 %8, 0
  br label %10

10:                                               ; preds = %5, %1
  %11 = phi i1 [ false, %1 ], [ %9, %5 ]
  %12 = zext i1 %11 to i32
  ret i32 %12
}